(lp1
(i__main__
Blog
p2
(dp3
S'values'
p4
(dp5
S'Personal_Score'
p6
I15
sS'Philosophy'
p7
I7
sS'Culinary_ED'
p8
I7
sS'Food_Focus_Score'
p9
I10
sS'Food_News'
p10
I0
sS'Int_Culture'
p11
I9
sS'Recipe_Dev'
p12
I5
sS'Diet'
p13
I2
sS'Fact_Score'
p14
I16
sS'Diary'
p15
I2
sS'Politics'
p16
I2
sS'Persuasion_Score'
p17
I4
sS'Food_Science'
p18
I0
sS'Memoir'
p19
I6
sS'Food_Descriptions'
p20
I5
ssS'data'
p21
(lp22
sS'name'
p23
S'She Simmers'
p24
sba(i__main__
Blog
p25
(dp26
g4
(dp27
g6
I19
sg7
I9
sg8
I2
sg9
I10
sg10
I0
sg11
I3
sg12
I4
sg13
I3
sg14
I5
sg15
I3
sg16
I7
sg17
I10
sg18
I1
sg19
I7
sg20
I5
ssg21
(lp28
sg23
S'Edible Ink'
p29
sba(i__main__
Blog
p30
(dp31
g4
(dp32
g6
I17
sg7
I5
sg8
I6
sg9
I14
sg10
I1
sg11
I9
sg12
I7
sg13
I2
sg14
I16
sg15
I7
sg16
I2
sg17
I4
sg18
I3
sg19
I5
sg20
I4
ssg21
(lp33
sg23
S'Cafe Fernando'
p34
sba(i__main__
Blog
p35
(dp36
g4
(dp37
g6
I14
sg7
I5
sg8
I2
sg9
I3
sg10
I5
sg11
I0
sg12
I0
sg13
I1
sg14
I7
sg15
I7
sg16
I4
sg17
I5
sg18
I0
sg19
I2
sg20
I3
ssg21
(lp38
sg23
S'Nostrovia'
p39
sba(i__main__
Blog
p40
(dp41
g4
(dp42
g6
I21
sg7
I9
sg8
I2
sg9
I13
sg10
I6
sg11
I4
sg12
I2
sg13
I6
sg14
I12
sg15
I3
sg16
I6
sg17
I12
sg18
I4
sg19
I9
sg20
I7
ssg21
(lp43
sg23
S'Farmer General'
p44
sba(i__main__
Blog
p45
(dp46
g4
(dp47
g6
I15
sg7
I3
sg8
I6
sg9
I15
sg10
I2
sg11
I9
sg12
I5
sg13
I2
sg14
I17
sg15
I4
sg16
I4
sg17
I6
sg18
I3
sg19
I8
sg20
I7
ssg21
(lp48
sg23
S'Kitchen in Surgency'
p49
sba(i__main__
Blog
p50
(dp51
g4
(dp52
g6
I18
sg7
I7
sg8
I5
sg9
I13
sg10
I4
sg11
I9
sg12
I4
sg13
I2
sg14
I18
sg15
I7
sg16
I5
sg17
I7
sg18
I2
sg19
I4
sg20
I7
ssg21
(lp53
sg23
S'The Spinning Plate'
p54
sba(i__main__
Blog
p55
(dp56
g4
(dp57
g6
I18
sg7
I4
sg8
I4
sg9
I16
sg10
I2
sg11
I0
sg12
I7
sg13
I0
sg14
I6
sg15
I8
sg16
I1
sg17
I1
sg18
I2
sg19
I6
sg20
I7
ssg21
(lp58
sg23
S'Food for the Thoughtless'
p59
sba(i__main__
Blog
p60
(dp61
g4
(dp62
g6
I18
sg7
I5
sg8
I8
sg9
I19
sg10
I3
sg11
I9
sg12
I7
sg13
I2
sg14
I20
sg15
I4
sg16
I3
sg17
I5
sg18
I3
sg19
I9
sg20
I9
ssg21
(lp63
sg23
S'Jun-Blog'
p64
sba(i__main__
Blog
p65
(dp66
g4
(dp67
g6
I20
sg7
I6
sg8
I6
sg9
I12
sg10
I0
sg11
I4
sg12
I6
sg13
I5
sg14
I10
sg15
I9
sg16
I2
sg17
I7
sg18
I2
sg19
I5
sg20
I4
ssg21
(lp68
sg23
S' MsMarmiteLover '
p69
sba(i__main__
Blog
p70
(dp71
g4
(dp72
g6
I15
sg7
I7
sg8
I6
sg9
I14
sg10
I7
sg11
I0
sg12
I4
sg13
I9
sg14
I13
sg15
I5
sg16
I9
sg17
I18
sg18
I6
sg19
I3
sg20
I4
ssg21
(lp73
sg23
S'Mark Bittman'
p74
sba(i__main__
Blog
p75
(dp76
g4
(dp77
g6
I4
sg7
I4
sg8
I7
sg9
I7
sg10
I9
sg11
I0
sg12
I0
sg13
I5
sg14
I16
sg15
I0
sg16
I9
sg17
I14
sg18
I7
sg19
I0
sg20
I0
ssg21
(lp78
sg23
S'Notebook: Alton Brown'
p79
sba(i__main__
Blog
p80
(dp81
g4
(dp82
g6
I3
sg7
I1
sg8
I5
sg9
I19
sg10
I2
sg11
I7
sg12
I9
sg13
I2
sg14
I14
sg15
I0
sg16
I2
sg17
I4
sg18
I3
sg19
I2
sg20
I7
ssg21
(lp83
sg23
S'David Leboviz: Living the Sweet Life in Paris'
p84
sba(i__main__
Blog
p85
(dp86
g4
(dp87
g6
I18
sg7
I7
sg8
I7
sg9
I9
sg10
I1
sg11
I9
sg12
I3
sg13
I1
sg14
I17
sg15
I4
sg16
I3
sg17
I4
sg18
I0
sg19
I7
sg20
I6
ssg21
(lp88
sg23
S'The Cooks Cottage'
p89
sba(i__main__
Blog
p90
(dp91
g4
(dp92
g6
I19
sg7
I5
sg8
I2
sg9
I13
sg10
I0
sg11
I7
sg12
I7
sg13
I3
sg14
I9
sg15
I8
sg16
I3
sg17
I6
sg18
I0
sg19
I6
sg20
I6
ssg21
(lp93
sg23
S'Rachel Eats '
p94
sba(i__main__
Blog
p95
(dp96
g4
(dp97
g6
I18
sg7
I7
sg8
I9
sg9
I7
sg10
I3
sg11
I0
sg12
I1
sg13
I2
sg14
I12
sg15
I2
sg16
I4
sg17
I6
sg18
I5
sg19
I9
sg20
I1
ssg21
(lp98
sg23
S'EggBeater '
p99
sba(i__main__
Blog
p100
(dp101
g4
(dp102
g6
I15
sg7
I7
sg8
I3
sg9
I11
sg10
I3
sg11
I9
sg12
I2
sg13
I0
sg14
I15
sg15
I8
sg16
I5
sg17
I5
sg18
I0
sg19
I0
sg20
I9
ssg21
(lp103
sg23
S'Anthony Bourdain'
p104
sba(i__main__
Blog
p105
(dp106
g4
(dp107
g6
I19
sg7
I4
sg8
I3
sg9
I12
sg10
I0
sg11
I2
sg12
I5
sg13
I0
sg14
I5
sg15
I9
sg16
I0
sg17
I0
sg18
I0
sg19
I6
sg20
I7
ssg21
(lp108
sg23
S'Orangette'
p109
sba(i__main__
Blog
p110
(dp111
g4
(dp112
g6
I17
sg7
I7
sg8
I2
sg9
I9
sg10
I4
sg11
I9
sg12
I2
sg13
I5
sg14
I15
sg15
I3
sg16
I6
sg17
I11
sg18
I0
sg19
I7
sg20
I7
ssg21
(lp113
sg23
S"The Traveler's Lunchbox"
p114
sba(i__main__
Blog
p115
(dp116
g4
(dp117
g6
I8
sg7
I1
sg8
I8
sg9
I17
sg10
I0
sg11
I8
sg12
I7
sg13
I3
sg14
I16
sg15
I3
sg16
I2
sg17
I5
sg18
I2
sg19
I4
sg20
I8
ssg21
(lp118
sg23
S'Chocolate and Zucchini'
p119
sba(i__main__
Blog
p120
(dp121
g4
(dp122
g6
I17
sg7
I4
sg8
I3
sg9
I15
sg10
I0
sg11
I1
sg12
I7
sg13
I0
sg14
I4
sg15
I9
sg16
I0
sg17
I0
sg18
I0
sg19
I4
sg20
I8
ssg21
(lp123
sg23
S'Dessert First '
p124
sba(i__main__
Blog
p125
(dp126
g4
(dp127
g6
I3
sg7
I3
sg8
I4
sg9
I13
sg10
I9
sg11
I1
sg12
I4
sg13
I8
sg14
I14
sg15
I0
sg16
I9
sg17
I17
sg18
I5
sg19
I0
sg20
I4
ssg21
(lp128
sg23
S'The Ethicurean'
p129
sba(i__main__
Blog
p130
(dp131
g4
(dp132
g6
I14
sg7
I2
sg8
I4
sg9
I15
sg10
I0
sg11
I5
sg12
I7
sg13
I0
sg14
I9
sg15
I6
sg16
I0
sg17
I0
sg18
I0
sg19
I6
sg20
I8
ssg21
(lp133
sg23
S'Homesick Texan'
p134
sba(i__main__
Blog
p135
(dp136
g4
(dp137
g6
I11
sg7
I0
sg8
I5
sg9
I11
sg10
I0
sg11
I8
sg12
I4
sg13
I4
sg14
I13
sg15
I7
sg16
I1
sg17
I5
sg18
I0
sg19
I4
sg20
I7
ssg21
(lp138
sg23
S'Just Hungry '
p139
sba(i__main__
Blog
p140
(dp141
g4
(dp142
g6
I17
sg7
I8
sg8
I4
sg9
I10
sg10
I0
sg11
I3
sg12
I2
sg13
I0
sg14
I7
sg15
I0
sg16
I0
sg17
I0
sg18
I0
sg19
I9
sg20
I8
ssg21
(lp143
sg23
VDavid\u2019s Blog
p144
sba(i__main__
Blog
p145
(dp146
g4
(dp147
g6
I18
sg7
I7
sg8
I2
sg9
I21
sg10
I0
sg11
I1
sg12
I8
sg13
I0
sg14
I3
sg15
I7
sg16
I0
sg17
I0
sg18
I4
sg19
I4
sg20
I9
ssg21
(lp148
sg23
S'MattBites'
p149
sba(i__main__
Blog
p150
(dp151
g4
(dp152
g6
I16
sg7
I7
sg8
I5
sg9
I14
sg10
I5
sg11
I0
sg12
I2
sg13
I2
sg14
I10
sg15
I4
sg16
I4
sg17
I6
sg18
I6
sg19
I5
sg20
I6
ssg21
(lp153
sg23
VMichael Ruhlman: Translating the Chef\u2019s Craft for Every Kitchen
p154
sba(i__main__
Blog
p155
(dp156
g4
(dp157
g6
I7
sg7
I0
sg8
I5
sg9
I16
sg10
I0
sg11
I0
sg12
I7
sg13
I9
sg14
I5
sg15
I7
sg16
I5
sg17
I14
sg18
I0
sg19
I0
sg20
I9
ssg21
(lp158
sg23
S'Chewing The Fat'
p159
sba(i__main__
Blog
p160
(dp161
g4
(dp162
g6
I12
sg7
I7
sg8
I7
sg9
I24
sg10
I4
sg11
I0
sg12
I9
sg13
I9
sg14
I11
sg15
I0
sg16
I9
sg17
I18
sg18
I8
sg19
I5
sg20
I7
ssg21
(lp163
sg23
S'Hunter, Angler, Gardener, Cook'
p164
sba(i__main__
Blog
p165
(dp166
g4
(dp167
g6
I6
sg7
I5
sg8
I6
sg9
I15
sg10
I7
sg11
I0
sg12
I4
sg13
I7
sg14
I13
sg15
I1
sg16
I9
sg17
I16
sg18
I5
sg19
I0
sg20
I6
ssg21
(lp168
sg23
S'A Hunger Artist'
p169
sba(i__main__
Blog
p170
(dp171
g4
(dp172
g6
I17
sg7
I4
sg8
I3
sg9
I16
sg10
I0
sg11
I0
sg12
I7
sg13
I0
sg14
I3
sg15
I9
sg16
I0
sg17
I0
sg18
I0
sg19
I4
sg20
I9
ssg21
(lp173
sg23
S'The Culinary Life'
p174
sba(i__main__
Blog
p175
(dp176
g4
(dp177
g6
I16
sg7
I7
sg8
I7
sg9
I19
sg10
I0
sg11
I0
sg12
I7
sg13
I3
sg14
I7
sg15
I9
sg16
I0
sg17
I3
sg18
I3
sg19
I0
sg20
I9
ssg21
(lp178
sg23
S'The Amatuer Gormet '
p179
sba(i__main__
Blog
p180
(dp181
g4
(dp182
g6
I14
sg7
I5
sg8
I9
sg9
I19
sg10
I0
sg11
I0
sg12
I7
sg13
I6
sg14
I9
sg15
I8
sg16
I5
sg17
I11
sg18
I7
sg19
I1
sg20
I5
ssg21
(lp183
sg23
VMrs.Wheelbarrow\u2019s Kitchen\u2019s
p184
sba(i__main__
Blog
p185
(dp186
g4
(dp187
g6
I9
sg7
I6
sg8
I6
sg9
I24
sg10
I7
sg11
I0
sg12
I9
sg13
I9
sg14
I13
sg15
I3
sg16
I9
sg17
I18
sg18
I6
sg19
I0
sg20
I9
ssg21
(lp188
sg23
S'Post Punk Kitchen'
p189
sba(i__main__
Blog
p190
(dp191
g4
(dp192
g6
I6
sg7
I0
sg8
I5
sg9
I11
sg10
I2
sg11
I4
sg12
I2
sg13
I6
sg14
I11
sg15
I6
sg16
I0
sg17
I6
sg18
I0
sg19
I0
sg20
I9
ssg21
(lp193
sg23
S'Madame Fromage'
p194
sba(i__main__
Blog
p195
(dp196
g4
(dp197
g6
I17
sg7
I5
sg8
I0
sg9
I20
sg10
I0
sg11
I0
sg12
I9
sg13
I0
sg14
I0
sg15
I4
sg16
I0
sg17
I0
sg18
I3
sg19
I8
sg20
I8
ssg21
(lp198
sg23
S'The Kitchen Sink Recipes'
p199
sba(i__main__
Blog
p200
(dp201
g4
(dp202
g6
I16
sg7
I7
sg8
I2
sg9
I15
sg10
I5
sg11
I8
sg12
I7
sg13
I4
sg14
I15
sg15
I9
sg16
I5
sg17
I9
sg18
I0
sg19
I0
sg20
I8
ssg21
(lp203
sg23
S'The Yellow House'
p204
sba(i__main__
Blog
p205
(dp206
g4
(dp207
g6
I19
sg7
I7
sg8
I0
sg9
I11
sg10
I0
sg11
I0
sg12
I2
sg13
I2
sg14
I0
sg15
I3
sg16
I0
sg17
I2
sg18
I0
sg19
I9
sg20
I9
ssg21
(lp208
sg23
S'Food Loves Writing'
p209
sba(i__main__
Blog
p210
(dp211
g4
(dp212
g6
I21
sg7
I9
sg8
I0
sg9
I12
sg10
I0
sg11
I0
sg12
I3
sg13
I0
sg14
I0
sg15
I3
sg16
I0
sg17
I0
sg18
I0
sg19
I9
sg20
I9
ssg21
(lp213
sg23
S'Kate Christensen'
p214
sba(i__main__
Blog
p215
(dp216
g4
(dp217
g6
I19
sg7
I9
sg8
I9
sg9
I20
sg10
I4
sg11
I0
sg12
I7
sg13
I7
sg14
I13
sg15
I7
sg16
I4
sg17
I11
sg18
I4
sg19
I3
sg20
I9
ssg21
(lp218
sg23
S' Not Without Salt'
p219
sba(i__main__
Blog
p220
(dp221
g4
(dp222
g6
I3
sg7
I3
sg8
I6
sg9
I18
sg10
I9
sg11
I5
sg12
I4
sg13
I0
sg14
I20
sg15
I0
sg16
I7
sg17
I7
sg18
I9
sg19
I0
sg20
I5
ssg21
(lp223
sg23
S'Food and Think'
p224
sba(i__main__
Blog
p225
(dp226
g4
(dp227
g6
I15
sg7
I7
sg8
I2
sg9
I10
sg10
I2
sg11
I9
sg12
I4
sg13
I0
sg14
I13
sg15
I3
sg16
I0
sg17
I0
sg18
I0
sg19
I5
sg20
I6
ssg21
(lp228
sg23
S' Edible Adventures'
p229
sba(i__main__
Blog
p230
(dp231
g4
(dp232
g6
I18
sg7
I6
sg8
I1
sg9
I11
sg10
I3
sg11
I0
sg12
I6
sg13
I9
sg14
I4
sg15
I7
sg16
I4
sg17
I13
sg18
I0
sg19
I5
sg20
I5
ssg21
(lp233
sg23
S' Lunch Box Blues'
p234
sba(i__main__
Blog
p235
(dp236
g4
(dp237
g6
I18
sg7
I8
sg8
I4
sg9
I10
sg10
I2
sg11
I9
sg12
I2
sg13
I2
sg14
I15
sg15
I3
sg16
I2
sg17
I4
sg18
I0
sg19
I7
sg20
I8
ssg21
(lp238
sg23
S'The Rambling Spoon'
p239
sba.